target datalayout = "e-m:e-p270:32:32-p271:32:32-p272:64:64-i64:64-i128:128-f80:128-n8:16:32:64-S128"
target triple = "x86_64-pc-linux-gnu"

%struct.H5_debug_t = type { ptr, i8, i8, [20 x %struct.anon], ptr }
%struct.anon = type { ptr, ptr }
%struct.H5_debug_open_stream_t = type { ptr, ptr }

@H5_debug_g = global %struct.H5_debug_t zeroinitializer, align 8
@stderr = external global ptr, align 8
@.str.88 = private unnamed_addr constant [6 x i8] c"trace\00", align 1
@.str.89 = private unnamed_addr constant [5 x i8] c"ttop\00", align 1
@.str.90 = private unnamed_addr constant [7 x i8] c"ttimes\00", align 1
@.str.91 = private unnamed_addr constant [4 x i8] c"all\00", align 1
@.str.92 = private unnamed_addr constant [24 x i8] c"HDF5_DEBUG: ignored %s\0A\00", align 1
@.str.93 = private unnamed_addr constant [2 x i8] c"w\00", align 1

; Function Attrs: nounwind uwtable
define internal void @H5__debug_mask(ptr noundef %0) #0 {
  %2 = alloca ptr, align 8
  %3 = alloca ptr, align 8
  %4 = alloca [32 x i8], align 16
  %5 = alloca ptr, align 8
  %6 = alloca i64, align 8
  %7 = alloca i8, align 1
  %8 = alloca i32, align 4
  %9 = alloca ptr, align 8
  store ptr %0, ptr %2, align 8
  %10 = load ptr, ptr @stderr, align 8
  store ptr %10, ptr %3, align 8
  br label %11

11:                                               ; preds = %231, %1
  %12 = load ptr, ptr %2, align 8
  %13 = icmp ne ptr %12, null
  br i1 %13, label %14, label %19

14:                                               ; preds = %11
  %15 = load ptr, ptr %2, align 8
  %16 = load i8, ptr %15, align 1
  %17 = sext i8 %16 to i32
  %18 = icmp ne i32 %17, 0
  br label %19

19:                                               ; preds = %14, %11
  %20 = phi i1 [ false, %11 ], [ %18, %14 ]
  br i1 %20, label %21, label %232

21:                                               ; preds = %19
  %22 = call ptr @__ctype_b_loc() #11
  %23 = load ptr, ptr %22, align 8
  %24 = load ptr, ptr %2, align 8
  %25 = load i8, ptr %24, align 1
  %26 = sext i8 %25 to i32
  %27 = sext i32 %26 to i64
  %28 = getelementptr inbounds i16, ptr %23, i64 %27
  %29 = load i16, ptr %28, align 2
  %30 = zext i16 %29 to i32
  %31 = and i32 %30, 1024
  %32 = icmp ne i32 %31, 0
  br i1 %32, label %43, label %33

33:                                               ; preds = %21
  %34 = load ptr, ptr %2, align 8
  %35 = load i8, ptr %34, align 1
  %36 = sext i8 %35 to i32
  %37 = icmp eq i32 45, %36
  br i1 %37, label %43, label %38

38:                                               ; preds = %33
  %39 = load ptr, ptr %2, align 8
  %40 = load i8, ptr %39, align 1
  %41 = sext i8 %40 to i32
  %42 = icmp eq i32 43, %41
  br i1 %42, label %43, label %190

43:                                               ; preds = %38, %33, %21
  %44 = load ptr, ptr %2, align 8
  %45 = load i8, ptr %44, align 1
  %46 = sext i8 %45 to i32
  %47 = icmp eq i32 45, %46
  br i1 %47, label %48, label %51

48:                                               ; preds = %43
  store i8 1, ptr %7, align 1
  %49 = load ptr, ptr %2, align 8
  %50 = getelementptr inbounds i8, ptr %49, i32 1
  store ptr %50, ptr %2, align 8
  br label %61

51:                                               ; preds = %43
  %52 = load ptr, ptr %2, align 8
  %53 = load i8, ptr %52, align 1
  %54 = sext i8 %53 to i32
  %55 = icmp eq i32 43, %54
  br i1 %55, label %56, label %59

56:                                               ; preds = %51
  store i8 0, ptr %7, align 1
  %57 = load ptr, ptr %2, align 8
  %58 = getelementptr inbounds i8, ptr %57, i32 1
  store ptr %58, ptr %2, align 8
  br label %60

59:                                               ; preds = %51
  store i8 0, ptr %7, align 1
  br label %60

60:                                               ; preds = %59, %56
  br label %61

61:                                               ; preds = %60, %48
  store i64 0, ptr %6, align 8
  br label %62

62:                                               ; preds = %83, %61
  %63 = call ptr @__ctype_b_loc() #11
  %64 = load ptr, ptr %63, align 8
  %65 = load ptr, ptr %2, align 8
  %66 = load i8, ptr %65, align 1
  %67 = sext i8 %66 to i32
  %68 = sext i32 %67 to i64
  %69 = getelementptr inbounds i16, ptr %64, i64 %68
  %70 = load i16, ptr %69, align 2
  %71 = zext i16 %70 to i32
  %72 = and i32 %71, 1024
  %73 = icmp ne i32 %72, 0
  br i1 %73, label %74, label %88

74:                                               ; preds = %62
  %75 = load i64, ptr %6, align 8
  %76 = icmp ult i64 %75, 32
  br i1 %76, label %77, label %82

77:                                               ; preds = %74
  %78 = load ptr, ptr %2, align 8
  %79 = load i8, ptr %78, align 1
  %80 = load i64, ptr %6, align 8
  %81 = getelementptr inbounds [32 x i8], ptr %4, i64 0, i64 %80
  store i8 %79, ptr %81, align 1
  br label %82

82:                                               ; preds = %77, %74
  br label %83

83:                                               ; preds = %82
  %84 = load i64, ptr %6, align 8
  %85 = add i64 %84, 1
  store i64 %85, ptr %6, align 8
  %86 = load ptr, ptr %2, align 8
  %87 = getelementptr inbounds i8, ptr %86, i32 1
  store ptr %87, ptr %2, align 8
  br label %62

88:                                               ; preds = %62
  %89 = load i64, ptr %6, align 8
  %90 = icmp ult i64 31, %89
  br i1 %90, label %91, label %92

91:                                               ; preds = %88
  br label %94

92:                                               ; preds = %88
  %93 = load i64, ptr %6, align 8
  br label %94

94:                                               ; preds = %92, %91
  %95 = phi i64 [ 31, %91 ], [ %93, %92 ]
  %96 = getelementptr inbounds [32 x i8], ptr %4, i64 0, i64 %95
  store i8 0, ptr %96, align 1
  %97 = getelementptr inbounds [32 x i8], ptr %4, i64 0, i64 0
  %98 = call i32 @strcmp(ptr noundef %97, ptr noundef @.str.88) #12
  %99 = icmp ne i32 %98, 0
  br i1 %99, label %108, label %100

100:                                              ; preds = %94
  %101 = load i8, ptr %7, align 1
  %102 = trunc i8 %101 to i1
  br i1 %102, label %103, label %104

103:                                              ; preds = %100
  br label %106

104:                                              ; preds = %100
  %105 = load ptr, ptr %3, align 8
  br label %106

106:                                              ; preds = %104, %103
  %107 = phi ptr [ null, %103 ], [ %105, %104 ]
  store ptr %107, ptr @H5_debug_g, align 8
  br label %189

108:                                              ; preds = %94
  %109 = getelementptr inbounds [32 x i8], ptr %4, i64 0, i64 0
  %110 = call i32 @strcmp(ptr noundef %109, ptr noundef @.str.89) #12
  %111 = icmp ne i32 %110, 0
  br i1 %111, label %118, label %112

112:                                              ; preds = %108
  %113 = load ptr, ptr %3, align 8
  store ptr %113, ptr @H5_debug_g, align 8
  %114 = load i8, ptr %7, align 1
  %115 = trunc i8 %114 to i1
  %116 = xor i1 %115, true
  %117 = zext i1 %116 to i8
  store i8 %117, ptr getelementptr inbounds (%struct.H5_debug_t, ptr @H5_debug_g, i32 0, i32 1), align 8
  br label %188

118:                                              ; preds = %108
  %119 = getelementptr inbounds [32 x i8], ptr %4, i64 0, i64 0
  %120 = call i32 @strcmp(ptr noundef %119, ptr noundef @.str.90) #12
  %121 = icmp ne i32 %120, 0
  br i1 %121, label %128, label %122

122:                                              ; preds = %118
  %123 = load ptr, ptr %3, align 8
  store ptr %123, ptr @H5_debug_g, align 8
  %124 = load i8, ptr %7, align 1
  %125 = trunc i8 %124 to i1
  %126 = xor i1 %125, true
  %127 = zext i1 %126 to i8
  store i8 %127, ptr getelementptr inbounds (%struct.H5_debug_t, ptr @H5_debug_g, i32 0, i32 2), align 1
  br label %187

128:                                              ; preds = %118
  %129 = getelementptr inbounds [32 x i8], ptr %4, i64 0, i64 0
  %130 = call i32 @strcmp(ptr noundef %129, ptr noundef @.str.91) #12
  %131 = icmp ne i32 %130, 0
  br i1 %131, label %151, label %132

132:                                              ; preds = %128
  store i64 0, ptr %6, align 8
  br label %133

133:                                              ; preds = %147, %132
  %134 = load i64, ptr %6, align 8
  %135 = icmp ult i64 %134, 20
  br i1 %135, label %136, label %150

136:                                              ; preds = %133
  %137 = load i8, ptr %7, align 1
  %138 = trunc i8 %137 to i1
  br i1 %138, label %139, label %140

139:                                              ; preds = %136
  br label %142

140:                                              ; preds = %136
  %141 = load ptr, ptr %3, align 8
  br label %142

142:                                              ; preds = %140, %139
  %143 = phi ptr [ null, %139 ], [ %141, %140 ]
  %144 = load i64, ptr %6, align 8
  %145 = getelementptr inbounds [20 x %struct.anon], ptr getelementptr inbounds (%struct.H5_debug_t, ptr @H5_debug_g, i32 0, i32 3), i64 0, i64 %144
  %146 = getelementptr inbounds %struct.anon, ptr %145, i32 0, i32 1
  store ptr %143, ptr %146, align 8
  br label %147

147:                                              ; preds = %142
  %148 = load i64, ptr %6, align 8
  %149 = add i64 %148, 1
  store i64 %149, ptr %6, align 8
  br label %133

150:                                              ; preds = %133
  br label %186

151:                                              ; preds = %128
  store i64 0, ptr %6, align 8
  br label %152

152:                                              ; preds = %175, %151
  %153 = load i64, ptr %6, align 8
  %154 = icmp ult i64 %153, 20
  br i1 %154, label %155, label %178

155:                                              ; preds = %152
  %156 = load i64, ptr %6, align 8
  %157 = getelementptr inbounds [20 x %struct.anon], ptr getelementptr inbounds (%struct.H5_debug_t, ptr @H5_debug_g, i32 0, i32 3), i64 0, i64 %156
  %158 = getelementptr inbounds %struct.anon, ptr %157, i32 0, i32 0
  %159 = load ptr, ptr %158, align 8
  %160 = getelementptr inbounds [32 x i8], ptr %4, i64 0, i64 0
  %161 = call i32 @strcmp(ptr noundef %159, ptr noundef %160) #12
  %162 = icmp ne i32 %161, 0
  br i1 %162, label %174, label %163

163:                                              ; preds = %155
  %164 = load i8, ptr %7, align 1
  %165 = trunc i8 %164 to i1
  br i1 %165, label %166, label %167

166:                                              ; preds = %163
  br label %169

167:                                              ; preds = %163
  %168 = load ptr, ptr %3, align 8
  br label %169

169:                                              ; preds = %167, %166
  %170 = phi ptr [ null, %166 ], [ %168, %167 ]
  %171 = load i64, ptr %6, align 8
  %172 = getelementptr inbounds [20 x %struct.anon], ptr getelementptr inbounds (%struct.H5_debug_t, ptr @H5_debug_g, i32 0, i32 3), i64 0, i64 %171
  %173 = getelementptr inbounds %struct.anon, ptr %172, i32 0, i32 1
  store ptr %170, ptr %173, align 8
  br label %178

174:                                              ; preds = %155
  br label %175

175:                                              ; preds = %174
  %176 = load i64, ptr %6, align 8
  %177 = add i64 %176, 1
  store i64 %177, ptr %6, align 8
  br label %152

178:                                              ; preds = %169, %152
  %179 = load i64, ptr %6, align 8
  %180 = icmp uge i64 %179, 20
  br i1 %180, label %181, label %185

181:                                              ; preds = %178
  %182 = load ptr, ptr @stderr, align 8
  %183 = getelementptr inbounds [32 x i8], ptr %4, i64 0, i64 0
  %184 = call i32 (ptr, ptr, ...) @fprintf(ptr noundef %182, ptr noundef @.str.92, ptr noundef %183) #10
  br label %185

185:                                              ; preds = %181, %178
  br label %186

186:                                              ; preds = %185, %150
  br label %187

187:                                              ; preds = %186, %122
  br label %188

188:                                              ; preds = %187, %112
  br label %189

189:                                              ; preds = %188, %106
  br label %231

190:                                              ; preds = %38
  %191 = call ptr @__ctype_b_loc() #11
  %192 = load ptr, ptr %191, align 8
  %193 = load ptr, ptr %2, align 8
  %194 = load i8, ptr %193, align 1
  %195 = sext i8 %194 to i32
  %196 = sext i32 %195 to i64
  %197 = getelementptr inbounds i16, ptr %192, i64 %196
  %198 = load i16, ptr %197, align 2
  %199 = zext i16 %198 to i32
  %200 = and i32 %199, 2048
  %201 = icmp ne i32 %200, 0
  br i1 %201, label %202, label %227

202:                                              ; preds = %190
  %203 = load ptr, ptr %2, align 8
  %204 = call i64 @strtol(ptr noundef %203, ptr noundef %5, i32 noundef 0) #10
  %205 = trunc i64 %204 to i32
  store i32 %205, ptr %8, align 4
  %206 = load i32, ptr %8, align 4
  %207 = call noalias ptr @fdopen(i32 noundef %206, ptr noundef @.str.93) #10
  store ptr %207, ptr %3, align 8
  %208 = icmp ne ptr %207, null
  br i1 %208, label %209, label %225

209:                                              ; preds = %202
  %210 = load ptr, ptr %3, align 8
  %211 = call i32 @setvbuf(ptr noundef %210, ptr noundef null, i32 noundef 1, i64 noundef 0) #10
  %212 = call noalias ptr @malloc(i64 noundef 16) #13
  store ptr %212, ptr %9, align 8
  %213 = icmp eq ptr null, %212
  br i1 %213, label %214, label %217

214:                                              ; preds = %209
  %215 = load ptr, ptr %3, align 8
  %216 = call i32 @fclose(ptr noundef %215)
  br label %232

217:                                              ; preds = %209
  %218 = load ptr, ptr %3, align 8
  %219 = load ptr, ptr %9, align 8
  %220 = getelementptr inbounds %struct.H5_debug_open_stream_t, ptr %219, i32 0, i32 0
  store ptr %218, ptr %220, align 8
  %221 = load ptr, ptr getelementptr inbounds (%struct.H5_debug_t, ptr @H5_debug_g, i32 0, i32 4), align 8
  %222 = load ptr, ptr %9, align 8
  %223 = getelementptr inbounds %struct.H5_debug_open_stream_t, ptr %222, i32 0, i32 1
  store ptr %221, ptr %223, align 8
  %224 = load ptr, ptr %9, align 8
  store ptr %224, ptr getelementptr inbounds (%struct.H5_debug_t, ptr @H5_debug_g, i32 0, i32 4), align 8
  br label %225

225:                                              ; preds = %217, %202
  %226 = load ptr, ptr %5, align 8
  store ptr %226, ptr %2, align 8
  br label %230

227:                                              ; preds = %190
  %228 = load ptr, ptr %2, align 8
  %229 = getelementptr inbounds i8, ptr %228, i32 1
  store ptr %229, ptr %2, align 8
  br label %230

230:                                              ; preds = %227, %225
  br label %231

231:                                              ; preds = %230, %189
  br label %11

232:                                              ; preds = %214, %19
  ret void
}