; Function Attrs: nofree nounwind uwtable
define internal fastcc void @H5__debug_mask(ptr noundef %0) unnamed_addr #5 {
  %2 = alloca [32 x i8], align 16
  %3 = alloca ptr, align 8
  %.not77 = icmp eq ptr %0, null
  br i1 %.not77, label %.critedge, label %.lr.ph81.preheader

.lr.ph81.preheader:                               ; preds = %1
  %4 = load ptr, ptr @stderr, align 8
  br label %.lr.ph81

.lr.ph81:                                         ; preds = %.lr.ph81.preheader, %.loopexit
  %.079 = phi ptr [ %.3, %.loopexit ], [ %0, %.lr.ph81.preheader ]
  %.04478 = phi ptr [ %.145, %.loopexit ], [ %4, %.lr.ph81.preheader ]
  %5 = load i8, ptr %.079, align 1
  %.not54 = icmp eq i8 %5, 0
  br i1 %.not54, label %.critedge, label %6

6:                                                ; preds = %.lr.ph81
  %7 = tail call ptr @__ctype_b_loc() #24
  %8 = load ptr, ptr %7, align 8
  %9 = sext i8 %5 to i64
  %10 = getelementptr inbounds i16, ptr %8, i64 %9
  %11 = load i16, ptr %10, align 2
  %.fr = freeze i16 %11
  %12 = zext i16 %.fr to i32
  %13 = and i32 %12, 1024
  %.not55.not = icmp eq i32 %13, 0
  br i1 %.not55.not, label %switch.early.test, label %14

switch.early.test:                                ; preds = %6
  switch i8 %5, label %63 [
    i8 45, label %14
    i8 43, label %14
  ]

14:                                               ; preds = %switch.early.test, %switch.early.test, %6
  %15 = icmp ne i8 %5, 45
  %16 = getelementptr inbounds i8, ptr %.079, i64 1
  %17 = icmp eq i8 %5, 43
  %spec.select = select i1 %17, ptr %16, ptr %.079
  %.1 = select i1 %15, ptr %spec.select, ptr %16
  %18 = load i8, ptr %.1, align 1
  %19 = sext i8 %18 to i64
  %20 = getelementptr inbounds i16, ptr %8, i64 %19
  %21 = load i16, ptr %20, align 2
  %22 = and i16 %21, 1024
  %.not5871 = icmp eq i16 %22, 0
  br i1 %.not5871, label %._crit_edge, label %.lr.ph

.lr.ph:                                           ; preds = %14, %28
  %23 = phi ptr [ %29, %28 ], [ %8, %14 ]
  %24 = phi i8 [ %32, %28 ], [ %18, %14 ]
  %.273 = phi ptr [ %31, %28 ], [ %.1, %14 ]
  %.04772 = phi i64 [ %30, %28 ], [ 0, %14 ]
  %25 = icmp ult i64 %.04772, 32
  br i1 %25, label %26, label %28

26:                                               ; preds = %.lr.ph
  %27 = getelementptr inbounds [32 x i8], ptr %2, i64 0, i64 %.04772
  store i8 %24, ptr %27, align 1
  %.pre = load ptr, ptr %7, align 8
  br label %28

28:                                               ; preds = %.lr.ph, %26
  %29 = phi ptr [ %23, %.lr.ph ], [ %.pre, %26 ]
  %30 = add i64 %.04772, 1
  %31 = getelementptr inbounds i8, ptr %.273, i64 1
  %32 = load i8, ptr %31, align 1
  %33 = sext i8 %32 to i64
  %34 = getelementptr inbounds i16, ptr %29, i64 %33
  %35 = load i16, ptr %34, align 2
  %36 = and i16 %35, 1024
  %.not58 = icmp eq i16 %36, 0
  br i1 %.not58, label %._crit_edge, label %.lr.ph

._crit_edge:                                      ; preds = %28, %14
  %.047.lcssa = phi i64 [ 0, %14 ], [ %30, %28 ]
  %.2.lcssa = phi ptr [ %.1, %14 ], [ %31, %28 ]
  %37 = call i64 @llvm.umin.i64(i64 %.047.lcssa, i64 31)
  %38 = getelementptr inbounds [32 x i8], ptr %2, i64 0, i64 %37
  store i8 0, ptr %38, align 1
  %bcmp = call i32 @bcmp(ptr noundef nonnull dereferenceable(6) %2, ptr noundef nonnull dereferenceable(6) @.str.88, i64 6)
  %.not59 = icmp eq i32 %bcmp, 0
  br i1 %.not59, label %39, label %41

39:                                               ; preds = %._crit_edge
  %40 = select i1 %15, ptr %.04478, ptr null
  store ptr %40, ptr @H5_debug_g, align 8
  br label %.loopexit

41:                                               ; preds = %._crit_edge
  %bcmp60 = call i32 @bcmp(ptr noundef nonnull dereferenceable(5) %2, ptr noundef nonnull dereferenceable(5) @.str.89, i64 5)
  %.not61 = icmp eq i32 %bcmp60, 0
  br i1 %.not61, label %42, label %44

42:                                               ; preds = %41
  store ptr %.04478, ptr @H5_debug_g, align 8
  %43 = zext i1 %15 to i8
  store i8 %43, ptr getelementptr inbounds (i8, ptr @H5_debug_g, i64 8), align 8
  br label %.loopexit

44:                                               ; preds = %41
  %bcmp62 = call i32 @bcmp(ptr noundef nonnull dereferenceable(7) %2, ptr noundef nonnull dereferenceable(7) @.str.90, i64 7)
  %.not63 = icmp eq i32 %bcmp62, 0
  br i1 %.not63, label %45, label %47

45:                                               ; preds = %44
  store ptr %.04478, ptr @H5_debug_g, align 8
  %46 = zext i1 %15 to i8
  store i8 %46, ptr getelementptr inbounds (i8, ptr @H5_debug_g, i64 9), align 1
  br label %.loopexit

47:                                               ; preds = %44
  %lhsv = load i32, ptr %2, align 16
  %.not65 = icmp eq i32 %lhsv, 7105633
  br i1 %.not65, label %.preheader, label %.preheader69

.preheader:                                       ; preds = %47
  %48 = select i1 %15, ptr %.04478, ptr null
  br label %49

49:                                               ; preds = %.preheader, %49
  %.14876 = phi i64 [ 0, %.preheader ], [ %51, %49 ]
  %50 = getelementptr inbounds [20 x %struct.anon], ptr getelementptr inbounds (i8, ptr @H5_debug_g, i64 16), i64 0, i64 %.14876, i32 1
  store ptr %48, ptr %50, align 8
  %51 = add nuw nsw i64 %.14876, 1
  %exitcond87.not = icmp eq i64 %51, 20
  br i1 %exitcond87.not, label %.loopexit, label %49

52:                                               ; preds = %.preheader69
  %53 = add nuw nsw i64 %.24975, 1
  %exitcond.not = icmp eq i64 %53, 20
  br i1 %exitcond.not, label %60, label %.preheader69

.preheader69:                                     ; preds = %47, %52
  %.24975 = phi i64 [ %53, %52 ], [ 0, %47 ]
  %54 = getelementptr inbounds [20 x %struct.anon], ptr getelementptr inbounds (i8, ptr @H5_debug_g, i64 16), i64 0, i64 %.24975
  %55 = load ptr, ptr %54, align 8
  %56 = call i32 @strcmp(ptr noundef nonnull dereferenceable(1) %55, ptr noundef nonnull dereferenceable(1) %2) #25
  %.not66 = icmp eq i32 %56, 0
  br i1 %.not66, label %57, label %52

57:                                               ; preds = %.preheader69
  %58 = select i1 %15, ptr %.04478, ptr null
  %59 = getelementptr inbounds i8, ptr %54, i64 8
  store ptr %58, ptr %59, align 8
  br label %.loopexit

60:                                               ; preds = %52
  %61 = load ptr, ptr @stderr, align 8
  %62 = call i32 (ptr, ptr, ...) @fprintf(ptr noundef %61, ptr noundef nonnull @.str.92, ptr noundef nonnull %2) #23
  br label %.loopexit

63:                                               ; preds = %switch.early.test
  %64 = and i32 %12, 2048
  %.not56 = icmp eq i32 %64, 0
  br i1 %.not56, label %80, label %65

65:                                               ; preds = %63
  %66 = call i64 @strtol(ptr noundef nonnull %.079, ptr noundef nonnull %3, i32 noundef 0) #21
  %67 = trunc i64 %66 to i32
  %68 = call noalias ptr @fdopen(i32 noundef %67, ptr noundef nonnull @.str.93) #21
  %.not57 = icmp eq ptr %68, null
  br i1 %.not57, label %78, label %69

69:                                               ; preds = %65
  %70 = call i32 @setvbuf(ptr noundef nonnull %68, ptr noundef null, i32 noundef 1, i64 noundef 0) #21
  %71 = call noalias dereferenceable_or_null(16) ptr @malloc(i64 noundef 16) #26
  %72 = icmp eq ptr %71, null
  br i1 %72, label %73, label %75

73:                                               ; preds = %69
  %74 = call i32 @fclose(ptr noundef nonnull %68)
  br label %.critedge

75:                                               ; preds = %69
  store ptr %68, ptr %71, align 8
  %76 = load ptr, ptr getelementptr inbounds (i8, ptr @H5_debug_g, i64 336), align 8
  %77 = getelementptr inbounds i8, ptr %71, i64 8
  store ptr %76, ptr %77, align 8
  store ptr %71, ptr getelementptr inbounds (i8, ptr @H5_debug_g, i64 336), align 8
  br label %78

78:                                               ; preds = %75, %65
  %79 = load ptr, ptr %3, align 8
  br label %.loopexit

80:                                               ; preds = %63
  %81 = getelementptr inbounds i8, ptr %.079, i64 1
  br label %.loopexit

.loopexit:                                        ; preds = %49, %57, %78, %80, %39, %45, %60, %42
  %.145 = phi ptr [ %.04478, %60 ], [ %.04478, %57 ], [ %.04478, %45 ], [ %.04478, %42 ], [ %.04478, %39 ], [ %68, %78 ], [ %.04478, %80 ], [ %.04478, %49 ]
  %.3 = phi ptr [ %.2.lcssa, %60 ], [ %.2.lcssa, %57 ], [ %.2.lcssa, %45 ], [ %.2.lcssa, %42 ], [ %.2.lcssa, %39 ], [ %79, %78 ], [ %81, %80 ], [ %.2.lcssa, %49 ]
  %.not = icmp eq ptr %.3, null
  br i1 %.not, label %.critedge, label %.lr.ph81

.critedge:                                        ; preds = %.lr.ph81, %.loopexit, %1, %73
  ret void
}